target datalayout = "e-m:e-p270:32:32-p271:32:32-p272:64:64-i64:64-i128:128-f80:128-n8:16:32:64-S128"
target triple = "x86_64-pc-linux-gnu"

%struct.lua_TValue = type { %union.Value, [1 x i32], i32 }
%union.Value = type { ptr }
%struct.LuaTable = type { i8, i8, i8, i8, i8, i8, i8, i8, i32, %union.anon.4, ptr, ptr, ptr, ptr }
%union.anon.4 = type { i32 }
%struct.GCheader = type { i8, i8, i8 }

; Function Attrs: mustprogress uwtable
define internal noundef i32 @_ZL13luauF_tinsertP9lua_StateP10lua_TValueS2_iS2_i(ptr noundef %0, ptr noundef %1, ptr noundef %2, i32 noundef %3, ptr noundef %4, i32 noundef %5) #3 {
  %7 = alloca i32, align 4
  %8 = alloca ptr, align 8
  %9 = alloca ptr, align 8
  %10 = alloca ptr, align 8
  %11 = alloca i32, align 4
  %12 = alloca ptr, align 8
  %13 = alloca i32, align 4
  %14 = alloca ptr, align 8
  %15 = alloca i32, align 4
  %16 = alloca i32, align 4
  %17 = alloca ptr, align 8
  %18 = alloca ptr, align 8
  store ptr %0, ptr %8, align 8, !tbaa !4
  store ptr %1, ptr %9, align 8, !tbaa !9
  store ptr %2, ptr %10, align 8, !tbaa !9
  store i32 %3, ptr %11, align 4, !tbaa !11
  store ptr %4, ptr %12, align 8, !tbaa !9
  store i32 %5, ptr %13, align 4, !tbaa !11
  %19 = load i32, ptr %13, align 4, !tbaa !11
  %20 = icmp eq i32 %19, 2
  br i1 %20, label %21, label %78

21:                                               ; preds = %6
  %22 = load i32, ptr %11, align 4, !tbaa !11
  %23 = icmp sle i32 %22, 0
  br i1 %23, label %24, label %78

24:                                               ; preds = %21
  %25 = load ptr, ptr %10, align 8, !tbaa !9
  %26 = getelementptr inbounds nuw %struct.lua_TValue, ptr %25, i32 0, i32 2
  %27 = load i32, ptr %26, align 4, !tbaa !13
  %28 = icmp eq i32 %27, 6
  br i1 %28, label %29, label %78

29:                                               ; preds = %24
  call void @llvm.lifetime.start.p0(i64 8, ptr %14) #17
  %30 = load ptr, ptr %10, align 8, !tbaa !9
  %31 = getelementptr inbounds nuw %struct.lua_TValue, ptr %30, i32 0, i32 0
  %32 = load ptr, ptr %31, align 8, !tbaa !15
  store ptr %32, ptr %14, align 8, !tbaa !57
  %33 = load ptr, ptr %14, align 8, !tbaa !57
  %34 = getelementptr inbounds nuw %struct.LuaTable, ptr %33, i32 0, i32 4
  %35 = load i8, ptr %34, align 4, !tbaa !58
  %36 = icmp ne i8 %35, 0
  br i1 %36, label %37, label %38

37:                                               ; preds = %29
  store i32 -1, ptr %7, align 4
  store i32 1, ptr %15, align 4
  br label %77

38:                                               ; preds = %29
  call void @llvm.lifetime.start.p0(i64 4, ptr %16) #17
  %39 = load ptr, ptr %14, align 8, !tbaa !57
  %40 = call noundef i32 @_Z9luaH_getnP8LuaTable(ptr noundef %39)
  %41 = add nsw i32 %40, 1
  store i32 %41, ptr %16, align 4, !tbaa !11
  call void @llvm.lifetime.start.p0(i64 8, ptr %17) #17
  %42 = load ptr, ptr %12, align 8, !tbaa !9
  store ptr %42, ptr %17, align 8, !tbaa !9
  call void @llvm.lifetime.start.p0(i64 8, ptr %18) #17
  %43 = load ptr, ptr %8, align 8, !tbaa !4
  %44 = load ptr, ptr %14, align 8, !tbaa !57
  %45 = load i32, ptr %16, align 4, !tbaa !11
  %46 = call noundef ptr @_Z11luaH_setnumP9lua_StateP8LuaTablei(ptr noundef %43, ptr noundef %44, i32 noundef %45)
  store ptr %46, ptr %18, align 8, !tbaa !9
  %47 = load ptr, ptr %17, align 8, !tbaa !9
  %48 = load ptr, ptr %18, align 8, !tbaa !9
  call void @llvm.memcpy.p0.p0.i64(ptr align 8 %48, ptr align 8 %47, i64 16, i1 false), !tbaa.struct !61
  call void @llvm.lifetime.end.p0(i64 8, ptr %18) #17
  call void @llvm.lifetime.end.p0(i64 8, ptr %17) #17
  %49 = load ptr, ptr %12, align 8, !tbaa !9
  %50 = getelementptr inbounds nuw %struct.lua_TValue, ptr %49, i32 0, i32 2
  %51 = load i32, ptr %50, align 4, !tbaa !13
  %52 = icmp sge i32 %51, 5
  br i1 %52, label %53, label %76

53:                                               ; preds = %38
  %54 = load ptr, ptr %14, align 8, !tbaa !57
  %55 = getelementptr inbounds %struct.LuaTable, ptr %54, i64 0
  %56 = getelementptr inbounds nuw %struct.GCheader, ptr %55, i32 0, i32 1
  %57 = load i8, ptr %56, align 1, !tbaa !15
  %58 = zext i8 %57 to i32
  %59 = and i32 %58, 4
  %60 = icmp ne i32 %59, 0
  br i1 %60, label %61, label %76

61:                                               ; preds = %53
  %62 = load ptr, ptr %12, align 8, !tbaa !9
  %63 = getelementptr inbounds nuw %struct.lua_TValue, ptr %62, i32 0, i32 0
  %64 = load ptr, ptr %63, align 8, !tbaa !15
  %65 = getelementptr inbounds nuw %struct.GCheader, ptr %64, i32 0, i32 1
  %66 = load i8, ptr %65, align 1, !tbaa !15
  %67 = zext i8 %66 to i32
  %68 = and i32 %67, 3
  %69 = icmp ne i32 %68, 0
  br i1 %69, label %70, label %76

70:                                               ; preds = %61
  %71 = load ptr, ptr %8, align 8, !tbaa !4
  %72 = load ptr, ptr %14, align 8, !tbaa !57
  %73 = load ptr, ptr %12, align 8, !tbaa !9
  %74 = getelementptr inbounds nuw %struct.lua_TValue, ptr %73, i32 0, i32 0
  %75 = load ptr, ptr %74, align 8, !tbaa !15
  call void @_Z17luaC_barriertableP9lua_StateP8LuaTableP8GCObject(ptr noundef %71, ptr noundef %72, ptr noundef %75)
  br label %76

76:                                               ; preds = %70, %61, %53, %38
  store i32 0, ptr %7, align 4
  store i32 1, ptr %15, align 4
  call void @llvm.lifetime.end.p0(i64 4, ptr %16) #17
  br label %77

77:                                               ; preds = %76, %37
  call void @llvm.lifetime.end.p0(i64 8, ptr %14) #17
  br label %79

78:                                               ; preds = %24, %21, %6
  store i32 -1, ptr %7, align 4
  br label %79

79:                                               ; preds = %78, %77
  %80 = load i32, ptr %7, align 4
  ret i32 %80
}