; Function Attrs: mustprogress uwtable
define internal noundef range(i32 -1, 1) i32 @_ZL13luauF_tinsertP9lua_StateP10lua_TValueS2_iS2_i(ptr noundef %0, ptr readnone captures(none) %1, ptr noundef readonly captures(none) %2, i32 noundef %3, ptr noundef readonly captures(none) %4, i32 noundef %5) #8 {
  %7 = icmp eq i32 %5, 2
  %8 = icmp slt i32 %3, 1
  %or.cond = and i1 %8, %7
  br i1 %or.cond, label %9, label %34

9:                                                ; preds = %6
  %10 = getelementptr inbounds nuw i8, ptr %2, i64 12
  %11 = load i32, ptr %10, align 4, !tbaa !4
  %12 = icmp eq i32 %11, 6
  br i1 %12, label %13, label %34

13:                                               ; preds = %9
  %14 = load ptr, ptr %2, align 8, !tbaa !9
  %15 = getelementptr inbounds nuw i8, ptr %14, i64 4
  %16 = load i8, ptr %15, align 4, !tbaa !53
  %.not = icmp eq i8 %16, 0
  br i1 %.not, label %17, label %34

17:                                               ; preds = %13
  %18 = tail call noundef i32 @_Z9luaH_getnP8LuaTable(ptr noundef nonnull %14)
  %19 = add nsw i32 %18, 1
  %20 = tail call noundef ptr @_Z11luaH_setnumP9lua_StateP8LuaTablei(ptr noundef %0, ptr noundef nonnull %14, i32 noundef %19)
  tail call void @llvm.memcpy.p0.p0.i64(ptr noundef nonnull align 8 dereferenceable(16) %20, ptr noundef nonnull align 8 dereferenceable(16) %4, i64 16, i1 false), !tbaa.struct !56
  %21 = getelementptr inbounds nuw i8, ptr %4, i64 12
  %22 = load i32, ptr %21, align 4, !tbaa !4
  %23 = icmp sgt i32 %22, 4
  br i1 %23, label %24, label %34

24:                                               ; preds = %17
  %25 = getelementptr inbounds nuw i8, ptr %14, i64 1
  %26 = load i8, ptr %25, align 1, !tbaa !9
  %27 = and i8 %26, 4
  %.not19 = icmp eq i8 %27, 0
  br i1 %.not19, label %34, label %28

28:                                               ; preds = %24
  %29 = load ptr, ptr %4, align 8, !tbaa !9
  %30 = getelementptr inbounds nuw i8, ptr %29, i64 1
  %31 = load i8, ptr %30, align 1, !tbaa !9
  %32 = and i8 %31, 3
  %.not20 = icmp eq i8 %32, 0
  br i1 %.not20, label %34, label %33

33:                                               ; preds = %28
  tail call void @_Z17luaC_barriertableP9lua_StateP8LuaTableP8GCObject(ptr noundef %0, ptr noundef nonnull %14, ptr noundef nonnull %29)
  br label %34

34:                                               ; preds = %6, %9, %13, %33, %28, %24, %17
  %.1 = phi i32 [ -1, %13 ], [ 0, %33 ], [ 0, %28 ], [ 0, %24 ], [ 0, %17 ], [ -1, %9 ], [ -1, %6 ]
  ret i32 %.1
}